; ModuleID = '29/1576.cpp'
source_filename = "29/1576.cpp"
target datalayout = "e-m:e-p270:32:32-p271:32:32-p272:64:64-i64:64-f80:128-n8:16:32:64-S128"
target triple = "x86_64-pc-linux-gnu"

%"class.std::ios_base::Init" = type { i8 }
%"class.std::basic_istream" = type { i32 (...)**, i64, %"class.std::basic_ios" }
%"class.std::basic_ios" = type { %"class.std::ios_base", %"class.std::basic_ostream"*, i8, i8, %"class.std::basic_streambuf"*, %"class.std::ctype"*, %"class.std::num_put"*, %"class.std::num_get"* }
%"class.std::ios_base" = type { i32 (...)**, i64, i64, i32, i32, i32, %"struct.std::ios_base::_Callback_list"*, %"struct.std::ios_base::_Words", [8 x %"struct.std::ios_base::_Words"], i32, %"struct.std::ios_base::_Words"*, %"class.std::locale" }
%"struct.std::ios_base::_Callback_list" = type { %"struct.std::ios_base::_Callback_list"*, void (i32, %"class.std::ios_base"*, i32)*, i32, i32 }
%"struct.std::ios_base::_Words" = type { i8*, i64 }
%"class.std::locale" = type { %"class.std::locale::_Impl"* }
%"class.std::locale::_Impl" = type { i32, %"class.std::locale::facet"**, i64, %"class.std::locale::facet"**, i8** }
%"class.std::locale::facet" = type <{ i32 (...)**, i32, [4 x i8] }>
%"class.std::basic_ostream" = type { i32 (...)**, %"class.std::basic_ios" }
%"class.std::basic_streambuf" = type { i32 (...)**, i8*, i8*, i8*, i8*, i8*, i8*, %"class.std::locale" }
%"class.std::ctype" = type <{ %"class.std::locale::facet.base", [4 x i8], %struct.__locale_struct*, i8, [7 x i8], i32*, i32*, i16*, i8, [256 x i8], [256 x i8], i8, [6 x i8] }>
%"class.std::locale::facet.base" = type <{ i32 (...)**, i32 }>
%struct.__locale_struct = type { [13 x %struct.__locale_data*], i16*, i32*, i32*, [13 x i8*] }
%struct.__locale_data = type opaque
%"class.std::num_put" = type { %"class.std::locale::facet.base", [4 x i8] }
%"class.std::num_get" = type { %"class.std::locale::facet.base", [4 x i8] }

@_ZStL8__ioinit = internal global %"class.std::ios_base::Init" zeroinitializer, align 1
@__dso_handle = external hidden global i8
@_ZSt3cin = external dso_local global %"class.std::basic_istream", align 8
@.str = private unnamed_addr constant [5 x i8] c"%.3f\00", align 1
@.str.1 = private unnamed_addr constant [2 x i8] c"\0A\00", align 1
@llvm.global_ctors = appending global [1 x { i32, void ()*, i8* }] [{ i32, void ()*, i8* } { i32 65535, void ()* @_GLOBAL__sub_I_1576.cpp, i8* null }]

; Function Attrs: noinline uwtable
define internal void @__cxx_global_var_init() #0 section ".text.startup" {
  call void @_ZNSt8ios_base4InitC1Ev(%"class.std::ios_base::Init"* @_ZStL8__ioinit)
  %1 = call i32 @__cxa_atexit(void (i8*)* bitcast (void (%"class.std::ios_base::Init"*)* @_ZNSt8ios_base4InitD1Ev to void (i8*)*), i8* getelementptr inbounds (%"class.std::ios_base::Init", %"class.std::ios_base::Init"* @_ZStL8__ioinit, i32 0, i32 0), i8* @__dso_handle) #3
  ret void
}

declare dso_local void @_ZNSt8ios_base4InitC1Ev(%"class.std::ios_base::Init"*) unnamed_addr #1

; Function Attrs: nounwind
declare dso_local void @_ZNSt8ios_base4InitD1Ev(%"class.std::ios_base::Init"*) unnamed_addr #2

; Function Attrs: nounwind
declare dso_local i32 @__cxa_atexit(void (i8*)*, i8*, i8*) #3

; Function Attrs: noinline nounwind uwtable
define dso_local float @_Z2Sni(i32 %0) #4 {
  %2 = alloca i32, align 4
  %3 = alloca i8*, align 8
  %4 = alloca i64, align 8
  %5 = alloca i32, align 4
  %6 = alloca float, align 4
  %7 = alloca i32, align 4
  store i32 %0, i32* %2, align 4
  %8 = load i32, i32* %2, align 4
  %9 = add nsw i32 %8, 1
  %10 = zext i32 %9 to i64
  %11 = call i8* @llvm.stacksave()
  store i8* %11, i8** %3, align 8
  %12 = alloca float, i64 %10, align 16
  store i64 %10, i64* %4, align 8
  %13 = getelementptr inbounds float, float* %12, i64 0
  store float 1.000000e+00, float* %13, align 16
  %14 = getelementptr inbounds float, float* %12, i64 1
  store float 2.000000e+00, float* %14, align 4
  store i32 0, i32* %5, align 4
  br label %15

15:                                               ; preds = %34, %1
  %16 = load i32, i32* %5, align 4
  %17 = load i32, i32* %2, align 4
  %18 = icmp slt i32 %16, %17
  br i1 %18, label %19, label %37

19:                                               ; preds = %15
  %20 = load i32, i32* %5, align 4
  %21 = sext i32 %20 to i64
  %22 = getelementptr inbounds float, float* %12, i64 %21
  %23 = load float, float* %22, align 4
  %24 = load i32, i32* %5, align 4
  %25 = add nsw i32 %24, 1
  %26 = sext i32 %25 to i64
  %27 = getelementptr inbounds float, float* %12, i64 %26
  %28 = load float, float* %27, align 4
  %29 = fadd float %23, %28
  %30 = load i32, i32* %5, align 4
  %31 = add nsw i32 %30, 2
  %32 = sext i32 %31 to i64
  %33 = getelementptr inbounds float, float* %12, i64 %32
  store float %29, float* %33, align 4
  br label %34

34:                                               ; preds = %19
  %35 = load i32, i32* %5, align 4
  %36 = add nsw i32 %35, 1
  store i32 %36, i32* %5, align 4
  br label %15

37:                                               ; preds = %15
  store float 0.000000e+00, float* %6, align 4
  store i32 0, i32* %7, align 4
  br label %38

38:                                               ; preds = %55, %37
  %39 = load i32, i32* %7, align 4
  %40 = load i32, i32* %2, align 4
  %41 = icmp slt i32 %39, %40
  br i1 %41, label %42, label %58

42:                                               ; preds = %38
  %43 = load float, float* %6, align 4
  %44 = load i32, i32* %7, align 4
  %45 = add nsw i32 %44, 1
  %46 = sext i32 %45 to i64
  %47 = getelementptr inbounds float, float* %12, i64 %46
  %48 = load float, float* %47, align 4
  %49 = load i32, i32* %7, align 4
  %50 = sext i32 %49 to i64
  %51 = getelementptr inbounds float, float* %12, i64 %50
  %52 = load float, float* %51, align 4
  %53 = fdiv float %48, %52
  %54 = fadd float %43, %53
  store float %54, float* %6, align 4
  br label %55

55:                                               ; preds = %42
  %56 = load i32, i32* %7, align 4
  %57 = add nsw i32 %56, 1
  store i32 %57, i32* %7, align 4
  br label %38

58:                                               ; preds = %38
  %59 = load float, float* %6, align 4
  %60 = load i8*, i8** %3, align 8
  call void @llvm.stackrestore(i8* %60)
  ret float %59
}

; Function Attrs: nounwind
declare i8* @llvm.stacksave() #3

; Function Attrs: nounwind
declare void @llvm.stackrestore(i8*) #3

; Function Attrs: noinline norecurse uwtable
define dso_local i32 @main() #5 {
  %1 = alloca i32, align 4
  %2 = alloca i32, align 4
  %3 = alloca i8*, align 8
  %4 = alloca i64, align 8
  %5 = alloca i32, align 4
  %6 = alloca i32, align 4
  store i32 0, i32* %1, align 4
  %7 = call dereferenceable(280) %"class.std::basic_istream"* @_ZNSirsERi(%"class.std::basic_istream"* @_ZSt3cin, i32* dereferenceable(4) %2)
  %8 = load i32, i32* %2, align 4
  %9 = zext i32 %8 to i64
  %10 = call i8* @llvm.stacksave()
  store i8* %10, i8** %3, align 8
  %11 = alloca i32, i64 %9, align 16
  store i64 %9, i64* %4, align 8
  store i32 0, i32* %5, align 4
  br label %12

12:                                               ; preds = %21, %0
  %13 = load i32, i32* %5, align 4
  %14 = load i32, i32* %2, align 4
  %15 = icmp slt i32 %13, %14
  br i1 %15, label %16, label %24

16:                                               ; preds = %12
  %17 = load i32, i32* %5, align 4
  %18 = sext i32 %17 to i64
  %19 = getelementptr inbounds i32, i32* %11, i64 %18
  %20 = call dereferenceable(280) %"class.std::basic_istream"* @_ZNSirsERi(%"class.std::basic_istream"* @_ZSt3cin, i32* dereferenceable(4) %19)
  br label %21

21:                                               ; preds = %16
  %22 = load i32, i32* %5, align 4
  %23 = add nsw i32 %22, 1
  store i32 %23, i32* %5, align 4
  br label %12

24:                                               ; preds = %12
  store i32 0, i32* %6, align 4
  br label %25

25:                                               ; preds = %38, %24
  %26 = load i32, i32* %6, align 4
  %27 = load i32, i32* %2, align 4
  %28 = icmp slt i32 %26, %27
  br i1 %28, label %29, label %41

29:                                               ; preds = %25
  %30 = load i32, i32* %6, align 4
  %31 = sext i32 %30 to i64
  %32 = getelementptr inbounds i32, i32* %11, i64 %31
  %33 = load i32, i32* %32, align 4
  %34 = call float @_Z2Sni(i32 %33)
  %35 = fpext float %34 to double
  %36 = call i32 (i8*, ...) @printf(i8* getelementptr inbounds ([5 x i8], [5 x i8]* @.str, i64 0, i64 0), double %35)
  %37 = call i32 (i8*, ...) @printf(i8* getelementptr inbounds ([2 x i8], [2 x i8]* @.str.1, i64 0, i64 0))
  br label %38

38:                                               ; preds = %29
  %39 = load i32, i32* %6, align 4
  %40 = add nsw i32 %39, 1
  store i32 %40, i32* %6, align 4
  br label %25

41:                                               ; preds = %25
  store i32 0, i32* %1, align 4
  %42 = load i8*, i8** %3, align 8
  call void @llvm.stackrestore(i8* %42)
  %43 = load i32, i32* %1, align 4
  ret i32 %43
}

declare dso_local dereferenceable(280) %"class.std::basic_istream"* @_ZNSirsERi(%"class.std::basic_istream"*, i32* dereferenceable(4)) #1

declare dso_local i32 @printf(i8*, ...) #1

; Function Attrs: noinline uwtable
define internal void @_GLOBAL__sub_I_1576.cpp() #0 section ".text.startup" {
  call void @__cxx_global_var_init()
  ret void
}


!llvm.module.flags = !{!0}
!llvm.ident = !{!1}

!0 = !{i32 1, !"wchar_size", i32 4}
!1 = !{!"clang version 10.0.0-4ubuntu1 "}
